target datalayout = "e-m:e-p270:32:32-p271:32:32-p272:64:64-i64:64-i128:128-f80:128-n8:16:32:64-S128"
target triple = "x86_64-pc-linux-gnu"

%"class.std::__cxx11::list" = type { %"class.std::__cxx11::_List_base" }
%"class.std::__cxx11::_List_base" = type { %"struct.std::__cxx11::_List_base<net::ReliableQuicStream::PendingData, std::allocator<net::ReliableQuicStream::PendingData>>::_List_impl" }
%"struct.std::__cxx11::_List_base<net::ReliableQuicStream::PendingData, std::allocator<net::ReliableQuicStream::PendingData>>::_List_impl" = type { %"struct.std::__detail::_List_node_header" }
%"struct.std::__detail::_List_node_header" = type { %"struct.std::__detail::_List_node_base", i64 }
%"struct.std::__detail::_List_node_base" = type { ptr, ptr }
%"class.net::QuicStreamSequencer" = type <{ ptr, ptr, %"class.net::QuicStreamSequencerBuffer", i64, i8, [3 x i8], i32, i32, [4 x i8], ptr, i8, [7 x i8] }>
%"class.net::QuicStreamSequencerBuffer" = type { i64, i64, i64, %"class.std::__cxx11::list.0", i8, %"class.std::unique_ptr", i64, %"class.std::map" }
%"class.std::__cxx11::list.0" = type { %"class.std::__cxx11::_List_base.1" }
%"class.std::__cxx11::_List_base.1" = type { %"struct.std::__cxx11::_List_base<net::QuicStreamSequencerBuffer::Gap, std::allocator<net::QuicStreamSequencerBuffer::Gap>>::_List_impl" }
%"struct.std::__cxx11::_List_base<net::QuicStreamSequencerBuffer::Gap, std::allocator<net::QuicStreamSequencerBuffer::Gap>>::_List_impl" = type { %"struct.std::__detail::_List_node_header" }
%"class.std::unique_ptr" = type { %"struct.std::__uniq_ptr_data" }
%"struct.std::__uniq_ptr_data" = type { %"class.std::__uniq_ptr_impl" }
%"class.std::__uniq_ptr_impl" = type { %"class.std::tuple" }
%"class.std::tuple" = type { %"struct.std::_Tuple_impl" }
%"struct.std::_Tuple_impl" = type { %"struct.std::_Head_base.6" }
%"struct.std::_Head_base.6" = type { ptr }
%"class.std::map" = type { %"class.std::_Rb_tree" }
%"class.std::_Rb_tree" = type { %"struct.std::_Rb_tree<unsigned long, std::pair<const unsigned long, net::QuicStreamSequencerBuffer::FrameInfo>, std::_Select1st<std::pair<const unsigned long, net::QuicStreamSequencerBuffer::FrameInfo>>, std::less<unsigned long>>::_Rb_tree_impl" }
%"struct.std::_Rb_tree<unsigned long, std::pair<const unsigned long, net::QuicStreamSequencerBuffer::FrameInfo>, std::_Select1st<std::pair<const unsigned long, net::QuicStreamSequencerBuffer::FrameInfo>>, std::less<unsigned long>>::_Rb_tree_impl" = type { [8 x i8], %"struct.std::_Rb_tree_header" }
%"struct.std::_Rb_tree_header" = type { %"struct.std::_Rb_tree_node_base", i64 }
%"struct.std::_Rb_tree_node_base" = type { i32, ptr, ptr, ptr }
%"class.net::QuicFlowController" = type { ptr, i32, i32, i64, i64, i64, i64, i64, i64, i64, i8, i64, %"class.net::QuicTime" }
%"class.net::QuicTime" = type { i64 }
%"class.std::__cxx11::basic_string" = type { %"struct.std::__cxx11::basic_string<char>::_Alloc_hider", i64, %union.anon }
%"struct.std::__cxx11::basic_string<char>::_Alloc_hider" = type { ptr }
%union.anon = type { i64, [8 x i8] }
%"class.net::QuicSession" = type <{ %"class.net::QuicConnectionVisitorInterface", %"class.std::map.80", ptr, %"class.std::vector", %"class.net::QuicConfig", i64, i64, %"class.base::SmallMap", %"class.base::SmallMap.102", i32, [4 x i8], %"class.std::unordered_set", %"class.std::unordered_set", %"class.net::QuicWriteBlockedList", i32, [4 x i8], i64, i64, i64, i32, [4 x i8], %"class.net::QuicFlowController", i32, [4 x i8] }>
%"class.net::QuicConnectionVisitorInterface" = type { ptr }
%"class.std::map.80" = type { %"class.std::_Rb_tree.81" }
%"class.std::_Rb_tree.81" = type { %"struct.std::_Rb_tree<unsigned int, std::pair<const unsigned int, unsigned long>, std::_Select1st<std::pair<const unsigned int, unsigned long>>, std::less<unsigned int>>::_Rb_tree_impl" }
%"struct.std::_Rb_tree<unsigned int, std::pair<const unsigned int, unsigned long>, std::_Select1st<std::pair<const unsigned int, unsigned long>>, std::less<unsigned int>>::_Rb_tree_impl" = type { [8 x i8], %"struct.std::_Rb_tree_header" }
%"class.std::vector" = type { %"struct.std::_Vector_base" }
%"struct.std::_Vector_base" = type { %"struct.std::_Vector_base<net::ReliableQuicStream *, std::allocator<net::ReliableQuicStream *>>::_Vector_impl" }
%"struct.std::_Vector_base<net::ReliableQuicStream *, std::allocator<net::ReliableQuicStream *>>::_Vector_impl" = type { %"struct.std::_Vector_base<net::ReliableQuicStream *, std::allocator<net::ReliableQuicStream *>>::_Vector_impl_data" }
%"struct.std::_Vector_base<net::ReliableQuicStream *, std::allocator<net::ReliableQuicStream *>>::_Vector_impl_data" = type { ptr, ptr, ptr }
%"class.net::QuicConfig" = type { %"class.net::QuicTime::Delta", %"class.net::QuicTime::Delta", i64, %"class.net::QuicFixedTagVector", %"class.net::QuicNegotiableUint32", %"class.net::QuicNegotiableUint32", %"class.net::QuicNegotiableUint32", %"class.net::QuicFixedUint32", %"class.net::QuicFixedUint32", %"class.net::QuicFixedUint32", %"class.net::QuicFixedUint32", %"class.net::QuicFixedUint32", %"class.net::QuicFixedUint32", %"class.net::QuicNegotiableUint32", %"class.net::QuicFixedUint32", %"class.net::QuicFixedIPEndPoint", %"class.net::QuicFixedUint32" }
%"class.net::QuicTime::Delta" = type { %"class.base::TimeDelta", i64 }
%"class.base::TimeDelta" = type { i64 }
%"class.net::QuicFixedTagVector" = type <{ %"class.net::QuicConfigValue", %"class.std::vector.89", i8, [7 x i8], %"class.std::vector.89", i8, [7 x i8] }>
%"class.net::QuicConfigValue" = type { ptr, i32, i32 }
%"class.std::vector.89" = type { %"struct.std::_Vector_base.90" }
%"struct.std::_Vector_base.90" = type { %"struct.std::_Vector_base<unsigned int, std::allocator<unsigned int>>::_Vector_impl" }
%"struct.std::_Vector_base<unsigned int, std::allocator<unsigned int>>::_Vector_impl" = type { %"struct.std::_Vector_base<unsigned int, std::allocator<unsigned int>>::_Vector_impl_data" }
%"struct.std::_Vector_base<unsigned int, std::allocator<unsigned int>>::_Vector_impl_data" = type { ptr, ptr, ptr }
%"class.net::QuicNegotiableUint32" = type { %"class.net::QuicNegotiableValue.base", i32, i32, i32 }
%"class.net::QuicNegotiableValue.base" = type <{ %"class.net::QuicConfigValue", i8 }>
%"class.net::QuicFixedIPEndPoint" = type <{ %"class.net::QuicConfigValue", %"class.net::IPEndPoint", i8, [7 x i8], %"class.net::IPEndPoint", i8, [7 x i8] }>
%"class.net::IPEndPoint" = type <{ %"class.net::IPAddress", i16, [6 x i8] }>
%"class.net::IPAddress" = type { %"class.std::vector.94" }
%"class.std::vector.94" = type { %"struct.std::_Vector_base.95" }
%"struct.std::_Vector_base.95" = type { %"struct.std::_Vector_base<unsigned char, std::allocator<unsigned char>>::_Vector_impl" }
%"struct.std::_Vector_base<unsigned char, std::allocator<unsigned char>>::_Vector_impl" = type { %"struct.std::_Vector_base<unsigned char, std::allocator<unsigned char>>::_Vector_impl_data" }
%"struct.std::_Vector_base<unsigned char, std::allocator<unsigned char>>::_Vector_impl_data" = type { ptr, ptr, ptr }
%"class.net::QuicFixedUint32" = type <{ %"class.net::QuicConfigValue", i32, i8, [3 x i8], i32, i8, [3 x i8] }>
%"class.base::SmallMap" = type { i32, [4 x i8], %union.anon.99 }
%union.anon.99 = type { %"class.base::ManualConstructor.100" }
%"class.base::ManualConstructor.100" = type { %"class.base::AlignedMemory.101" }
%"class.base::AlignedMemory.101" = type { [56 x i8] }
%"class.base::SmallMap.102" = type { i32, [4 x i8], %union.anon.103 }
%union.anon.103 = type { [10 x %"class.base::ManualConstructor"] }
%"class.base::ManualConstructor" = type { %"class.base::AlignedMemory" }
%"class.base::AlignedMemory" = type { [16 x i8] }
%"class.std::unordered_set" = type { %"class.std::_Hashtable" }
%"class.std::_Hashtable" = type { ptr, i64, %"struct.std::__detail::_Hash_node_base", i64, %"struct.std::__detail::_Prime_rehash_policy", ptr }
%"struct.std::__detail::_Hash_node_base" = type { ptr }
%"struct.std::__detail::_Prime_rehash_policy" = type { float, i64 }
%"class.net::QuicWriteBlockedList" = type <{ %"class.net::PriorityWriteScheduler", [8 x i32], [8 x i32], i8, i8, i8, [5 x i8] }>
%"class.net::PriorityWriteScheduler" = type { %"class.net::WriteScheduler", i64, [8 x %"struct.net::PriorityWriteScheduler<unsigned int>::PriorityInfo"], %"class.std::unordered_map" }
%"class.net::WriteScheduler" = type { ptr }
%"struct.net::PriorityWriteScheduler<unsigned int>::PriorityInfo" = type { %"class.std::deque.109", i64 }
%"class.std::deque.109" = type { %"class.std::_Deque_base.110" }
%"class.std::_Deque_base.110" = type { %"struct.std::_Deque_base<net::PriorityWriteScheduler<unsigned int>::StreamInfo *, std::allocator<net::PriorityWriteScheduler<unsigned int>::StreamInfo *>>::_Deque_impl" }
%"struct.std::_Deque_base<net::PriorityWriteScheduler<unsigned int>::StreamInfo *, std::allocator<net::PriorityWriteScheduler<unsigned int>::StreamInfo *>>::_Deque_impl" = type { %"struct.std::_Deque_base<net::PriorityWriteScheduler<unsigned int>::StreamInfo *, std::allocator<net::PriorityWriteScheduler<unsigned int>::StreamInfo *>>::_Deque_impl_data" }
%"struct.std::_Deque_base<net::PriorityWriteScheduler<unsigned int>::StreamInfo *, std::allocator<net::PriorityWriteScheduler<unsigned int>::StreamInfo *>>::_Deque_impl_data" = type { ptr, i64, %"struct.std::_Deque_iterator.114", %"struct.std::_Deque_iterator.114" }
%"struct.std::_Deque_iterator.114" = type { ptr, ptr, ptr, ptr }
%"class.std::unordered_map" = type { %"class.std::_Hashtable.115" }
%"class.std::_Hashtable.115" = type { ptr, i64, %"struct.std::__detail::_Hash_node_base", i64, %"struct.std::__detail::_Prime_rehash_policy", ptr }
%"class.net::ReliableQuicStream" = type <{ ptr, %"class.std::__cxx11::list", i64, %"class.net::QuicStreamSequencer", i32, [4 x i8], ptr, i64, i64, i32, i32, i8, i8, i8, i8, i8, i8, i8, i8, i32, [4 x i8], %"class.net::QuicFlowController", ptr, i8, [7 x i8] }>
%"class.net::QuicConnection" = type <{ %"class.net::QuicFramerVisitorInterface", %"class.net::QuicBlockedWriterInterface", %"class.net::QuicPacketGenerator::DelegateInterface", %"class.net::QuicSentPacketManagerInterface::NetworkChangeVisitor", %"class.net::QuicFramer", ptr, ptr, ptr, ptr, i8, i8, [6 x i8], ptr, ptr, i64, %"class.net::IPEndPoint", %"class.net::IPEndPoint", i32, [4 x i8], i64, i8, [7 x i8], i64, ptr, i8, [7 x i8], %"struct.net::QuicPacketHeader", %"struct.net::QuicStopWaitingFrame", i8, [7 x i8], i64, i64, %"class.std::deque.231", i64, i8, [7 x i8], %"class.std::__cxx11::list.237", i8, [7 x i8], %"class.std::unique_ptr.242", i32, i8, [3 x i8], %"class.net::QuicReceivedPacketManager", %"class.net::QuicSentEntropyManager", i8, [7 x i8], i64, i8, [7 x i8], i64, i32, i32, float, i8, i8, i8, i8, %"class.net::QuicTime::Delta", %"class.net::QuicOneBlockArena", %"class.net::QuicArenaScopedPtr", %"class.net::QuicArenaScopedPtr", %"class.net::QuicArenaScopedPtr", %"class.net::QuicArenaScopedPtr", %"class.net::QuicArenaScopedPtr", %"class.net::QuicArenaScopedPtr", %"class.net::QuicArenaScopedPtr", ptr, ptr, %"class.net::QuicPacketGenerator", %"class.net::QuicTime::Delta", %"class.net::QuicTime::Delta", %"struct.net::QuicConnectionStats", %"class.net::QuicTime", %"class.net::QuicTime", %"class.net::QuicTime", i64, %"class.std::unique_ptr.279", i32, i32, i8, [7 x i8], %"class.net::IPEndPoint", %"class.net::IPEndPoint", i8, [7 x i8], %"class.std::vector.210", i64, i64, i64, i64, i64, i64, i64, i8, i8, i8, i8, [4 x i8] }>
%"class.net::QuicFramerVisitorInterface" = type { ptr }
%"class.net::QuicBlockedWriterInterface" = type { ptr }
%"class.net::QuicPacketGenerator::DelegateInterface" = type { %"class.net::QuicPacketCreator::DelegateInterface" }
%"class.net::QuicPacketCreator::DelegateInterface" = type { %"class.net::QuicConnectionCloseDelegateInterface" }
%"class.net::QuicConnectionCloseDelegateInterface" = type { ptr }
%"class.net::QuicSentPacketManagerInterface::NetworkChangeVisitor" = type { ptr }
%"class.net::QuicFramer" = type { ptr, %"class.std::__cxx11::basic_string", ptr, ptr, i32, %"class.std::unordered_set.176", %"class.std::unordered_map.196", i64, %"class.std::unordered_map.196", i64, i8, i64, i32, i32, %"class.std::vector.210", %"class.std::unique_ptr.215", %"class.std::unique_ptr.215", i8, i8, i8, [3 x %"class.std::unique_ptr.223"], i32, i8, %"class.net::QuicTime", %"class.net::QuicTime::Delta", %"struct.std::array" }
%"class.std::unordered_set.176" = type { %"class.std::_Hashtable.177" }
%"class.std::_Hashtable.177" = type { ptr, i64, %"struct.std::__detail::_Hash_node_base", i64, %"struct.std::__detail::_Prime_rehash_policy", ptr }
%"class.std::unordered_map.196" = type { %"class.std::_Hashtable.197" }
%"class.std::_Hashtable.197" = type { ptr, i64, %"struct.std::__detail::_Hash_node_base", i64, %"struct.std::__detail::_Prime_rehash_policy", ptr }
%"class.std::unique_ptr.215" = type { %"struct.std::__uniq_ptr_data.216" }
%"struct.std::__uniq_ptr_data.216" = type { %"class.std::__uniq_ptr_impl.217" }
%"class.std::__uniq_ptr_impl.217" = type { %"class.std::tuple.218" }
%"class.std::tuple.218" = type { %"struct.std::_Tuple_impl.219" }
%"struct.std::_Tuple_impl.219" = type { %"struct.std::_Head_base.222" }
%"struct.std::_Head_base.222" = type { ptr }
%"class.std::unique_ptr.223" = type { %"struct.std::__uniq_ptr_data.224" }
%"struct.std::__uniq_ptr_data.224" = type { %"class.std::__uniq_ptr_impl.225" }
%"class.std::__uniq_ptr_impl.225" = type { %"class.std::tuple.226" }
%"class.std::tuple.226" = type { %"struct.std::_Tuple_impl.227" }
%"struct.std::_Tuple_impl.227" = type { %"struct.std::_Head_base.230" }
%"struct.std::_Head_base.230" = type { ptr }
%"struct.std::array" = type { [32 x i8] }
%"struct.net::QuicPacketHeader" = type <{ %"struct.net::QuicPacketPublicHeader", i64, i8, i8, i8, i8, [4 x i8] }>
%"struct.net::QuicPacketPublicHeader" = type { i64, i32, i8, i8, i8, i8, %"class.std::vector.210", ptr }
%"struct.net::QuicStopWaitingFrame" = type { i8, i8, i64 }
%"class.std::deque.231" = type { %"class.std::_Deque_base.232" }
%"class.std::_Deque_base.232" = type { %"struct.std::_Deque_base<net::QuicEncryptedPacket *, std::allocator<net::QuicEncryptedPacket *>>::_Deque_impl" }
%"struct.std::_Deque_base<net::QuicEncryptedPacket *, std::allocator<net::QuicEncryptedPacket *>>::_Deque_impl" = type { %"struct.std::_Deque_base<net::QuicEncryptedPacket *, std::allocator<net::QuicEncryptedPacket *>>::_Deque_impl_data" }
%"struct.std::_Deque_base<net::QuicEncryptedPacket *, std::allocator<net::QuicEncryptedPacket *>>::_Deque_impl_data" = type { ptr, i64, %"struct.std::_Deque_iterator.236", %"struct.std::_Deque_iterator.236" }
%"struct.std::_Deque_iterator.236" = type { ptr, ptr, ptr, ptr }
%"class.std::__cxx11::list.237" = type { %"class.std::__cxx11::_List_base.238" }
%"class.std::__cxx11::_List_base.238" = type { %"struct.std::__cxx11::_List_base<net::SerializedPacket, std::allocator<net::SerializedPacket>>::_List_impl" }
%"struct.std::__cxx11::_List_base<net::SerializedPacket, std::allocator<net::SerializedPacket>>::_List_impl" = type { %"struct.std::__detail::_List_node_header" }
%"class.std::unique_ptr.242" = type { %"struct.std::__uniq_ptr_data.243" }
%"struct.std::__uniq_ptr_data.243" = type { %"class.std::__uniq_ptr_impl.244" }
%"class.std::__uniq_ptr_impl.244" = type { %"class.std::tuple.245" }
%"class.std::tuple.245" = type { %"struct.std::_Tuple_impl.246" }
%"struct.std::_Tuple_impl.246" = type { %"struct.std::_Head_base.249" }
%"struct.std::_Head_base.249" = type { ptr }
%"class.net::QuicReceivedPacketManager" = type { %"class.net::QuicReceivedEntropyHashCalculatorInterface", %"class.net::QuicReceivedPacketManager::EntropyTracker", i64, %"struct.net::QuicAckFrame", i8, %"class.net::QuicTime", ptr }
%"class.net::QuicReceivedEntropyHashCalculatorInterface" = type { ptr }
%"class.net::QuicReceivedPacketManager::EntropyTracker" = type { %"class.std::deque.250", i8, i64, i64 }
%"class.std::deque.250" = type { %"class.std::_Deque_base.251" }
%"class.std::_Deque_base.251" = type { %"struct.std::_Deque_base<std::pair<unsigned char, bool>, std::allocator<std::pair<unsigned char, bool>>>::_Deque_impl" }
%"struct.std::_Deque_base<std::pair<unsigned char, bool>, std::allocator<std::pair<unsigned char, bool>>>::_Deque_impl" = type { %"struct.std::_Deque_base<std::pair<unsigned char, bool>, std::allocator<std::pair<unsigned char, bool>>>::_Deque_impl_data" }
%"struct.std::_Deque_base<std::pair<unsigned char, bool>, std::allocator<std::pair<unsigned char, bool>>>::_Deque_impl_data" = type { ptr, i64, %"struct.std::_Deque_iterator.255", %"struct.std::_Deque_iterator.255" }
%"struct.std::_Deque_iterator.255" = type { ptr, ptr, ptr, ptr }
%"struct.net::QuicAckFrame" = type <{ i64, %"class.net::QuicTime::Delta", %"class.std::vector.256", %"class.net::PacketNumberQueue", i8, i8, i8, i8, [4 x i8] }>
%"class.std::vector.256" = type { %"struct.std::_Vector_base.257" }
%"struct.std::_Vector_base.257" = type { %"struct.std::_Vector_base<std::pair<unsigned long, net::QuicTime>, std::allocator<std::pair<unsigned long, net::QuicTime>>>::_Vector_impl" }
%"struct.std::_Vector_base<std::pair<unsigned long, net::QuicTime>, std::allocator<std::pair<unsigned long, net::QuicTime>>>::_Vector_impl" = type { %"struct.std::_Vector_base<std::pair<unsigned long, net::QuicTime>, std::allocator<std::pair<unsigned long, net::QuicTime>>>::_Vector_impl_data" }
%"struct.std::_Vector_base<std::pair<unsigned long, net::QuicTime>, std::allocator<std::pair<unsigned long, net::QuicTime>>>::_Vector_impl_data" = type { ptr, ptr, ptr }
%"class.net::PacketNumberQueue" = type { %"class.net::IntervalSet" }
%"class.net::IntervalSet" = type { %"class.std::set" }
%"class.std::set" = type { %"class.std::_Rb_tree.261" }
%"class.std::_Rb_tree.261" = type { %"struct.std::_Rb_tree<net::Interval<unsigned long>, net::Interval<unsigned long>, std::_Identity<net::Interval<unsigned long>>, net::IntervalSet<unsigned long>::IntervalComparator>::_Rb_tree_impl" }
%"struct.std::_Rb_tree<net::Interval<unsigned long>, net::Interval<unsigned long>, std::_Identity<net::Interval<unsigned long>>, net::IntervalSet<unsigned long>::IntervalComparator>::_Rb_tree_impl" = type { [8 x i8], %"struct.std::_Rb_tree_header" }
%"class.net::QuicSentEntropyManager" = type { ptr, %"class.std::deque.266", i64, %"struct.net::QuicSentEntropyManager::CumulativeEntropy", %"struct.net::QuicSentEntropyManager::CumulativeEntropy" }
%"class.std::deque.266" = type { %"class.std::_Deque_base.267" }
%"class.std::_Deque_base.267" = type { %"struct.std::_Deque_base<unsigned char, std::allocator<unsigned char>>::_Deque_impl" }
%"struct.std::_Deque_base<unsigned char, std::allocator<unsigned char>>::_Deque_impl" = type { %"struct.std::_Deque_base<unsigned char, std::allocator<unsigned char>>::_Deque_impl_data" }
%"struct.std::_Deque_base<unsigned char, std::allocator<unsigned char>>::_Deque_impl_data" = type { ptr, i64, %"struct.std::_Deque_iterator.268", %"struct.std::_Deque_iterator.268" }
%"struct.std::_Deque_iterator.268" = type { ptr, ptr, ptr, ptr }
%"struct.net::QuicSentEntropyManager::CumulativeEntropy" = type <{ i64, i8, [7 x i8] }>
%"class.net::QuicOneBlockArena" = type { [1024 x i8], i32, [4 x i8] }
%"class.net::QuicArenaScopedPtr" = type { ptr }
%"class.net::QuicPacketGenerator" = type { ptr, %"class.net::QuicPacketCreator", %"class.std::vector.269", i8, i8, i8, [5 x i8], %"struct.net::QuicAckFrame", %"struct.net::QuicStopWaitingFrame" }
%"class.net::QuicPacketCreator" = type { ptr, ptr, ptr, %"class.net::QuicPacketCreator::QuicRandomBoolSource", ptr, i8, i8, i8, i8, %"struct.std::array", i64, i64, i32, %"class.std::vector.269", i64, i64, %"struct.net::SerializedPacket", %"class.std::unordered_map.196" }
%"class.net::QuicPacketCreator::QuicRandomBoolSource" = type { ptr, i64, i64 }
%"struct.net::SerializedPacket" = type { ptr, i16, %"class.std::vector.269", i8, i16, i8, i64, i8, i8, i8, i8, i8, i8, i8, i64, %"class.std::__cxx11::list.274" }
%"class.std::__cxx11::list.274" = type { %"class.std::__cxx11::_List_base.275" }
%"class.std::__cxx11::_List_base.275" = type { %"struct.std::__cxx11::_List_base<net::AckListenerWrapper, std::allocator<net::AckListenerWrapper>>::_List_impl" }
%"struct.std::__cxx11::_List_base<net::AckListenerWrapper, std::allocator<net::AckListenerWrapper>>::_List_impl" = type { %"struct.std::__detail::_List_node_header" }
%"class.std::vector.269" = type { %"struct.std::_Vector_base.270" }
%"struct.std::_Vector_base.270" = type { %"struct.std::_Vector_base<net::QuicFrame, std::allocator<net::QuicFrame>>::_Vector_impl" }
%"struct.std::_Vector_base<net::QuicFrame, std::allocator<net::QuicFrame>>::_Vector_impl" = type { %"struct.std::_Vector_base<net::QuicFrame, std::allocator<net::QuicFrame>>::_Vector_impl_data" }
%"struct.std::_Vector_base<net::QuicFrame, std::allocator<net::QuicFrame>>::_Vector_impl_data" = type { ptr, ptr, ptr }
%"struct.net::QuicConnectionStats" = type { i64, i64, i64, i64, i64, i64, i64, i64, i64, i64, i64, i64, i64, i64, i64, i64, i64, i64, i64, i64, i64, i64, i64, i64, i64, %"class.net::QuicBandwidth", i64, i64, i64, i32, %"class.net::QuicTime" }
%"class.net::QuicBandwidth" = type { i64 }
%"class.std::unique_ptr.279" = type { %"struct.std::__uniq_ptr_data.280" }
%"struct.std::__uniq_ptr_data.280" = type { %"class.std::__uniq_ptr_impl.281" }
%"class.std::__uniq_ptr_impl.281" = type { %"class.std::tuple.282" }
%"class.std::tuple.282" = type { %"struct.std::_Tuple_impl.283" }
%"struct.std::_Tuple_impl.283" = type { %"struct.std::_Head_base.286" }
%"struct.std::_Head_base.286" = type { ptr }
%"class.std::vector.210" = type { %"struct.std::_Vector_base.211" }
%"struct.std::_Vector_base.211" = type { %"struct.std::_Vector_base<net::QuicVersion, std::allocator<net::QuicVersion>>::_Vector_impl" }
%"struct.std::_Vector_base<net::QuicVersion, std::allocator<net::QuicVersion>>::_Vector_impl" = type { %"struct.std::_Vector_base<net::QuicVersion, std::allocator<net::QuicVersion>>::_Vector_impl_data" }
%"struct.std::_Vector_base<net::QuicVersion, std::allocator<net::QuicVersion>>::_Vector_impl_data" = type { ptr, ptr, ptr }

; Function Attrs: mustprogress nounwind uwtable
define linkonce_odr noundef zeroext i1 @_ZNK3net14QuicConnection9connectedEv(ptr noundef nonnull align 8 dereferenceable(3372) %0) #0 comdat align 2 {
  %2 = alloca ptr, align 8
  store ptr %0, ptr %2, align 8, !tbaa !314
  %3 = load ptr, ptr %2, align 8
  %4 = getelementptr inbounds nuw %"class.net::QuicConnection", ptr %3, i32 0, i32 80
  %5 = load i8, ptr %4, align 8, !tbaa !315, !range !209, !noundef !210
  %6 = trunc i8 %5 to i1
  ret i1 %6
}

; Function Attrs: mustprogress nounwind uwtable
define linkonce_odr noundef ptr @_ZN3net11QuicSession10connectionEv(ptr noundef nonnull align 8 dereferenceable(2044) %0) #0 comdat align 2 {
  %2 = alloca ptr, align 8
  store ptr %0, ptr %2, align 8, !tbaa !140
  %3 = load ptr, ptr %2, align 8
  %4 = getelementptr inbounds nuw %"class.net::QuicSession", ptr %3, i32 0, i32 2
  %5 = load ptr, ptr %4, align 8, !tbaa !141
  ret ptr %5
}

; Function Attrs: mustprogress nounwind uwtable
define linkonce_odr noundef ptr @_ZN3net18ReliableQuicStream7sessionEv(ptr noundef nonnull align 8 dereferenceable(377) %0) #0 comdat align 2 {
  %2 = alloca ptr, align 8
  store ptr %0, ptr %2, align 8, !tbaa !198
  %3 = load ptr, ptr %2, align 8
  %4 = getelementptr inbounds nuw %"class.net::ReliableQuicStream", ptr %3, i32 0, i32 6
  %5 = load ptr, ptr %4, align 8, !tbaa !241
  ret ptr %5
}

; Function Attrs: mustprogress uwtable
define noundef zeroext i1 @_ZN3net17QuicHeadersStream11IsConnectedEv(ptr noundef nonnull align 8 dereferenceable(816) %0) #2 align 2 {
  %2 = alloca ptr, align 8
  store ptr %0, ptr %2, align 8, !tbaa !10
  %3 = load ptr, ptr %2, align 8
  %4 = call noundef ptr @_ZN3net18ReliableQuicStream7sessionEv(ptr noundef nonnull align 8 dereferenceable(377) %3)
  %5 = call noundef ptr @_ZN3net11QuicSession10connectionEv(ptr noundef nonnull align 8 dereferenceable(2044) %4)
  %6 = call noundef zeroext i1 @_ZNK3net14QuicConnection9connectedEv(ptr noundef nonnull align 8 dereferenceable(3372) %5)
  ret i1 %6
}