; Function Attrs: mustprogress nofree norecurse nosync nounwind willreturn memory(read, inaccessiblemem: none) uwtable
define noundef zeroext i1 @_ZN3net17QuicHeadersStream11IsConnectedEv(ptr noundef nonnull readonly align 8 captures(none) dereferenceable(816) %0) local_unnamed_addr #13 align 2 {
  %2 = getelementptr inbounds nuw i8, ptr %0, i64 224
  %3 = load ptr, ptr %2, align 8, !tbaa !338
  %4 = getelementptr inbounds nuw i8, ptr %3, i64 56
  %5 = load ptr, ptr %4, align 8, !tbaa !129
  %6 = getelementptr inbounds nuw i8, ptr %5, i64 3208
  %7 = load i8, ptr %6, align 8, !tbaa !383, !range !343, !noundef !344
  %8 = trunc nuw i8 %7 to i1
  ret i1 %8
}